; Function Attrs: mustprogress nofree norecurse nosync nounwind willreturn memory(argmem: read) uwtable
define noundef range(i32 -1, 2) i32 @_ZN4base27CompareCaseInsensitiveASCIIENS_16BasicStringPieceINSt7__cxx1112basic_stringItNS_20string16_char_traitsESaItEEEEES6_(ptr readonly captures(none) %0, i64 %1, ptr readonly captures(none) %2, i64 %3) local_unnamed_addr #5 {
  %.fr.i = freeze i64 %3
  %invariant.umin.i = tail call i64 @llvm.umin.i64(i64 %1, i64 %.fr.i)
  %or.cond26.not.i = icmp eq i64 %invariant.umin.i, 0
  br i1 %or.cond26.not.i, label %.critedge.i, label %.lr.ph.i

5:                                                ; preds = %18
  %6 = add nuw i64 %.01227.i, 1
  %exitcond.not.i = icmp eq i64 %6, %invariant.umin.i
  br i1 %exitcond.not.i, label %.critedge.i, label %.lr.ph.i, !llvm.loop !44

.lr.ph.i:                                         ; preds = %4, %5
  %.01227.i = phi i64 [ %6, %5 ], [ 0, %4 ]
  %7 = getelementptr inbounds nuw i16, ptr %0, i64 %.01227.i
  %8 = load i16, ptr %7, align 2, !tbaa !31
  %9 = add i16 %8, -65
  %or.cond.i.i = icmp ult i16 %9, 26
  %10 = add nuw nsw i16 %8, 32
  %11 = select i1 %or.cond.i.i, i16 %10, i16 %8
  %12 = getelementptr inbounds nuw i16, ptr %2, i64 %.01227.i
  %13 = load i16, ptr %12, align 2, !tbaa !31
  %14 = add i16 %13, -65
  %or.cond.i16.i = icmp ult i16 %14, 26
  %15 = add nuw nsw i16 %13, 32
  %16 = select i1 %or.cond.i16.i, i16 %15, i16 %13
  %17 = icmp ult i16 %11, %16
  br i1 %17, label %_ZN4base28CompareCaseInsensitiveASCIITINSt7__cxx1112basic_stringItNS_20string16_char_traitsESaItEEEEEiNS_16BasicStringPieceIT_EES8_.exit, label %18

18:                                               ; preds = %.lr.ph.i
  %19 = icmp ugt i16 %11, %16
  br i1 %19, label %_ZN4base28CompareCaseInsensitiveASCIITINSt7__cxx1112basic_stringItNS_20string16_char_traitsESaItEEEEEiNS_16BasicStringPieceIT_EES8_.exit, label %5

.critedge.i:                                      ; preds = %5, %4
  %20 = icmp eq i64 %1, %.fr.i
  br i1 %20, label %_ZN4base28CompareCaseInsensitiveASCIITINSt7__cxx1112basic_stringItNS_20string16_char_traitsESaItEEEEEiNS_16BasicStringPieceIT_EES8_.exit, label %21

21:                                               ; preds = %.critedge.i
  %22 = icmp ult i64 %1, %.fr.i
  %..i = select i1 %22, i32 -1, i32 1
  br label %_ZN4base28CompareCaseInsensitiveASCIITINSt7__cxx1112basic_stringItNS_20string16_char_traitsESaItEEEEEiNS_16BasicStringPieceIT_EES8_.exit

_ZN4base28CompareCaseInsensitiveASCIITINSt7__cxx1112basic_stringItNS_20string16_char_traitsESaItEEEEEiNS_16BasicStringPieceIT_EES8_.exit: ; preds = %.lr.ph.i, %18, %.critedge.i, %21
  %.2.i = phi i32 [ 0, %.critedge.i ], [ %..i, %21 ], [ 1, %18 ], [ -1, %.lr.ph.i ]
  ret i32 %.2.i
}